; Function Attrs: nofree norecurse nosync nounwind memory(read, argmem: readwrite, inaccessiblemem: none) uwtable
define internal void @get_gm_factor(ptr noundef readonly captures(none) %0, ptr noundef writeonly captures(none) initializes((0, 4)) %1) #9 {
  %3 = getelementptr inbounds nuw i8, ptr %0, i64 72
  %4 = load ptr, ptr %3, align 8, !tbaa !4
  store float 1.000000e+00, ptr %1, align 4, !tbaa !47
  %5 = getelementptr inbounds nuw i8, ptr %4, i64 8
  %6 = load i32, ptr %5, align 8, !tbaa !43
  %7 = icmp sgt i32 %6, 0
  br i1 %7, label %.lr.ph, label %._crit_edge

.lr.ph:                                           ; preds = %2
  %8 = getelementptr inbounds nuw i8, ptr %4, i64 72
  %wide.trip.count = zext nneg i32 %6 to i64
  br label %9

9:                                                ; preds = %.lr.ph, %9
  %indvars.iv = phi i64 [ 0, %.lr.ph ], [ %indvars.iv.next, %9 ]
  %10 = phi float [ 1.000000e+00, %.lr.ph ], [ %13, %9 ]
  %11 = getelementptr inbounds nuw [129 x float], ptr %8, i64 0, i64 %indvars.iv
  %12 = load float, ptr %11, align 4, !tbaa !47
  %13 = fmul nsz float %12, %10
  store float %13, ptr %1, align 4, !tbaa !47
  %indvars.iv.next = add nuw nsw i64 %indvars.iv, 1
  %exitcond.not = icmp eq i64 %indvars.iv.next, %wide.trip.count
  br i1 %exitcond.not, label %._crit_edge.loopexit, label %9, !llvm.loop !88

._crit_edge.loopexit:                             ; preds = %9
  %14 = fpext nsz float %13 to double
  br label %._crit_edge

._crit_edge:                                      ; preds = %._crit_edge.loopexit, %2
  %15 = phi double [ %14, %._crit_edge.loopexit ], [ 1.000000e+00, %2 ]
  %16 = sitofp i32 %6 to float
  %17 = fdiv nsz float 1.000000e+00, %16
  %18 = fpext nsz float %17 to double
  %19 = tail call nsz double @llvm.pow.f64(double %15, double %18)
  %20 = fptrunc nsz double %19 to float
  store float %20, ptr %1, align 4, !tbaa !47
  %21 = getelementptr inbounds nuw i8, ptr %4, i64 72
  %22 = load float, ptr %21, align 8, !tbaa !47
  %23 = fdiv nsz float %20, %22
  store float %23, ptr %1, align 4, !tbaa !47
  ret void
}